; ModuleID = '61/1194.c'
source_filename = "61/1194.c"
target datalayout = "e-m:e-p270:32:32-p271:32:32-p272:64:64-i64:64-f80:128-n8:16:32:64-S128"
target triple = "x86_64-pc-linux-gnu"

@.str = private unnamed_addr constant [3 x i8] c"%d\00", align 1
@.str.1 = private unnamed_addr constant [4 x i8] c"%d\0A\00", align 1

; Function Attrs: noinline nounwind uwtable
define dso_local i32 @main() #0 {
  %1 = alloca i32, align 4
  %2 = alloca i64, align 8
  %3 = alloca i64, align 8
  %4 = alloca i64, align 8
  %5 = alloca [20 x i64], align 16
  %6 = alloca i64, align 8
  %7 = alloca i64, align 8
  %8 = alloca i64, align 8
  store i32 0, i32* %1, align 4
  %9 = call i32 (i8*, ...) @__isoc99_scanf(i8* getelementptr inbounds ([3 x i8], [3 x i8]* @.str, i64 0, i64 0), i64* %2)
  store i64 0, i64* %3, align 8
  br label %10

10:                                               ; preds = %18, %0
  %11 = load i64, i64* %3, align 8
  %12 = load i64, i64* %2, align 8
  %13 = icmp slt i64 %11, %12
  br i1 %13, label %14, label %21

14:                                               ; preds = %10
  %15 = load i64, i64* %3, align 8
  %16 = getelementptr inbounds [20 x i64], [20 x i64]* %5, i64 0, i64 %15
  %17 = call i32 (i8*, ...) @__isoc99_scanf(i8* getelementptr inbounds ([3 x i8], [3 x i8]* @.str, i64 0, i64 0), i64* %16)
  br label %18

18:                                               ; preds = %14
  %19 = load i64, i64* %3, align 8
  %20 = add nsw i64 %19, 1
  store i64 %20, i64* %3, align 8
  br label %10

21:                                               ; preds = %10
  store i64 0, i64* %3, align 8
  br label %22

22:                                               ; preds = %45, %21
  %23 = load i64, i64* %3, align 8
  %24 = load i64, i64* %2, align 8
  %25 = icmp slt i64 %23, %24
  br i1 %25, label %26, label %48

26:                                               ; preds = %22
  store i64 1, i64* %6, align 8
  store i64 1, i64* %7, align 8
  store i64 1, i64* %8, align 8
  store i64 2, i64* %4, align 8
  br label %27

27:                                               ; preds = %39, %26
  %28 = load i64, i64* %4, align 8
  %29 = load i64, i64* %3, align 8
  %30 = getelementptr inbounds [20 x i64], [20 x i64]* %5, i64 0, i64 %29
  %31 = load i64, i64* %30, align 8
  %32 = icmp slt i64 %28, %31
  br i1 %32, label %33, label %42

33:                                               ; preds = %27
  %34 = load i64, i64* %6, align 8
  %35 = load i64, i64* %7, align 8
  %36 = add nsw i64 %34, %35
  store i64 %36, i64* %8, align 8
  %37 = load i64, i64* %7, align 8
  store i64 %37, i64* %6, align 8
  %38 = load i64, i64* %8, align 8
  store i64 %38, i64* %7, align 8
  br label %39

39:                                               ; preds = %33
  %40 = load i64, i64* %4, align 8
  %41 = add nsw i64 %40, 1
  store i64 %41, i64* %4, align 8
  br label %27

42:                                               ; preds = %27
  %43 = load i64, i64* %8, align 8
  %44 = call i32 (i8*, ...) @printf(i8* getelementptr inbounds ([4 x i8], [4 x i8]* @.str.1, i64 0, i64 0), i64 %43)
  br label %45

45:                                               ; preds = %42
  %46 = load i64, i64* %3, align 8
  %47 = add nsw i64 %46, 1
  store i64 %47, i64* %3, align 8
  br label %22

48:                                               ; preds = %22
  ret i32 0
}

declare dso_local i32 @__isoc99_scanf(i8*, ...) #1

declare dso_local i32 @printf(i8*, ...) #1


!llvm.module.flags = !{!0}
!llvm.ident = !{!1}

!0 = !{i32 1, !"wchar_size", i32 4}
!1 = !{!"clang version 10.0.0-4ubuntu1 "}
